; Function Attrs: mustprogress uwtable
define internal fastcc noundef range(i32 0, 2) i32 @_ZL13zlib_compressP17grpc_slice_bufferS0_i(ptr noundef readonly captures(none) %0, ptr noundef %1, i32 noundef range(i32 0, 2) %2) unnamed_addr #3 personality ptr @__gxx_personality_v0 {
  %4 = alloca %struct.z_stream_s, align 8
  %5 = alloca %"class.absl::lts_20240722::log_internal::LogMessageFatal", align 8
  call void @llvm.lifetime.start.p0(i64 112, ptr nonnull %4) #12
  %6 = getelementptr inbounds nuw i8, ptr %1, i64 16
  %7 = load i64, ptr %6, align 8, !tbaa !7
  %8 = getelementptr inbounds nuw i8, ptr %1, i64 32
  %9 = load i64, ptr %8, align 8, !tbaa !18
  call void @llvm.memset.p0.i64(ptr noundef nonnull align 8 dereferenceable(112) %4, i8 0, i64 112, i1 false)
  %10 = getelementptr inbounds nuw i8, ptr %4, i64 64
  store ptr @_ZL10zalloc_gprPvjj, ptr %10, align 8, !tbaa !19
  %11 = getelementptr inbounds nuw i8, ptr %4, i64 72
  store ptr @_ZL9zfree_gprPvS_, ptr %11, align 8, !tbaa !24
  %.not = icmp eq i32 %2, 0
  %12 = select i1 %.not, i32 15, i32 31
  %13 = call i32 @deflateInit2_(ptr noundef nonnull %4, i32 noundef -1, i32 noundef 8, i32 noundef %12, i32 noundef 8, i32 noundef 0, ptr noundef nonnull @.str.2, i32 noundef 112)
  %.not23.not = icmp eq i32 %13, 0
  br i1 %.not23.not, label %.critedge, label %14, !prof !25

14:                                               ; preds = %3
  call void @llvm.lifetime.start.p0(i64 16, ptr nonnull %5) #12
  call void @_ZN4absl12lts_2024072212log_internal15LogMessageFatalC1EPKciSt17basic_string_viewIcSt11char_traitsIcEE(ptr noundef nonnull align 8 dereferenceable(16) %5, ptr noundef nonnull @.str, i32 noundef 106, i64 9, ptr nonnull @.str.3) #13
  call void @_ZN4absl12lts_2024072212log_internal15LogMessageFatalD1Ev(ptr noundef nonnull align 8 dereferenceable(16) %5) #15
  unreachable

.critedge:                                        ; preds = %3
  %15 = call fastcc noundef i32 @_ZL9zlib_bodyP10z_stream_sP17grpc_slice_bufferS2_PFiS0_iE(ptr noundef %4, ptr noundef %0, ptr noundef nonnull %1, ptr noundef nonnull @deflate)
  %.not24 = icmp eq i32 %15, 0
  br i1 %.not24, label %.preheader, label %16

16:                                               ; preds = %.critedge
  %17 = load i64, ptr %8, align 8, !tbaa !18
  %18 = getelementptr inbounds nuw i8, ptr %0, i64 32
  %19 = load i64, ptr %18, align 8, !tbaa !18
  %20 = icmp ult i64 %17, %19
  br i1 %20, label %38, label %.preheader

.preheader:                                       ; preds = %16, %.critedge
  %21 = load i64, ptr %6, align 8, !tbaa !7
  %22 = icmp ult i64 %7, %21
  br i1 %22, label %.lr.ph, label %._crit_edge

.lr.ph:                                           ; preds = %.preheader
  %23 = getelementptr inbounds nuw i8, ptr %1, i64 8
  br label %24

24:                                               ; preds = %.lr.ph, %_ZN9grpc_core11CSliceUnrefERK10grpc_sliceNS_13DebugLocationE.exit
  %.02226 = phi i64 [ %7, %.lr.ph ], [ %35, %_ZN9grpc_core11CSliceUnrefERK10grpc_sliceNS_13DebugLocationE.exit ]
  %25 = load ptr, ptr %23, align 8, !tbaa !12
  %26 = getelementptr inbounds nuw %struct.grpc_slice, ptr %25, i64 %.02226
  %27 = load ptr, ptr %26, align 8, !tbaa !13
  %28 = icmp ugt ptr %27, inttoptr (i64 1 to ptr)
  br i1 %28, label %29, label %_ZN9grpc_core11CSliceUnrefERK10grpc_sliceNS_13DebugLocationE.exit

29:                                               ; preds = %24
  %30 = atomicrmw sub ptr %27, i64 1 acq_rel, align 8
  %31 = icmp eq i64 %30, 1
  br i1 %31, label %32, label %_ZN9grpc_core11CSliceUnrefERK10grpc_sliceNS_13DebugLocationE.exit

32:                                               ; preds = %29
  %33 = getelementptr inbounds nuw i8, ptr %27, i64 8
  %34 = load ptr, ptr %33, align 8, !tbaa !26
  call void %34(ptr noundef nonnull align 8 dereferenceable(16) %27)
  br label %_ZN9grpc_core11CSliceUnrefERK10grpc_sliceNS_13DebugLocationE.exit

_ZN9grpc_core11CSliceUnrefERK10grpc_sliceNS_13DebugLocationE.exit: ; preds = %24, %29, %32
  %35 = add nuw i64 %.02226, 1
  %36 = load i64, ptr %6, align 8, !tbaa !7
  %37 = icmp ult i64 %35, %36
  br i1 %37, label %24, label %._crit_edge, !llvm.loop !33

._crit_edge:                                      ; preds = %_ZN9grpc_core11CSliceUnrefERK10grpc_sliceNS_13DebugLocationE.exit, %.preheader
  store i64 %7, ptr %6, align 8, !tbaa !7
  store i64 %9, ptr %8, align 8, !tbaa !18
  br label %38

38:                                               ; preds = %16, %._crit_edge
  %39 = phi i32 [ 1, %16 ], [ 0, %._crit_edge ]
  %40 = call i32 @deflateEnd(ptr noundef nonnull %4)
  call void @llvm.lifetime.end.p0(i64 112, ptr nonnull %4) #12
  ret i32 %39
}